(dp0
S'Grilled Cheese'
p1
(S'butter'
p2
S'bread'
p3
S'cheese'
p4
tp5
sS'Test3'
p6
(S'1'
p7
S'2'
p8
S'3'
p9
tp10
sS'Test2'
p11
(S'a'
p12
S'b'
p13
S'c'
p14
S'd'
p15
tp16
sS'test7'
p17
(S't'
p18
S'y'
p19
S'u'
p20
tp21
sS'Dog Bisquets'
p22
(S'Flour'
p23
S'egg'
p24
S'oil'
p25
tp26
sS'It Works'
p27
(S'yes'
p28
S'it works'
p29
S'with'
p30
S'the'
p31
tp32
sS'lasttest'
p33
Ns.