(dp0
S'Grilled Cheese'
p1
(S'bread'
p2
S'cheese'
p3
S'butter'
p4
tp5
sS'Shrimp Tacos With Citrus Cabbage Slaw'
p6
(lp7
S'sour cream'
p8
aS'kosher salt and black pepper'
p9
aS'cabe ( )'
p10
aS'shredded'
p11
aS'corn kernels (fromtoears'
p12
aS'or frozen and )'
p13
aS'jalapeo'
p14
aS'seeded and'
p15
aS'olive oil'
p16
aS'peeled and deveined medium shrimp'
p17
asS'Buffalo Chicken Grilled Cheese Sandwich'
p18
(lp19
S'chicken'
p20
aS'hot sauce'
p21
aS'mayo'
p22
aS'carrot'
p23
aS'celery'
p24
aS'onion'
p25
aS'blue cheese'
p26
aS'cheddar cheese'
p27
aS'bread'
p28
aS'butter'
p29
asS'BLT'
p30
(S'Bacon'
p31
S'Lettuce'
p32
S'Tomatoe'
p33
tp34
sS'Taco Seasoning I'
p35
(lp36
S'chili powder'
p37
aS'garlic powder'
p38
aS'onion powder'
p39
aS'crushed red pepper flakes'
p40
aS'dried oregano'
p41
aS'paprika'
p42
aS'ground cumin'
p43
aS'sea salt'
p44
aS'black pepper'
p45
asS'Cajun Chicken Pasta'
p46
(lp47
S'boneless'
p48
aS'skinless chicken breasts'
p49
aS'cut into cubes'
p50
aS'cajun spice mix'
p51
aS'more to taste'
p52
aS'fettuccine'
p53
aS'olive oil'
p54
aS's butter'
p55
aS'green bell pepper'
p56
aS'seeded and sliced'
p57
aS'red bell pepper'
p58
aS'seeded and sliced'
p59
aS'large red onion'
p60
aS'sliced'
p61
aS'cloves garlic'
p62
aS'minced'
p63
aS'roma tomatoes'
p64
aS'diced'
p65
aS'low sodium chicken broth'
p66
aS'white wine'
p67
aS'heavy cream'
p68
aS'cayenne pepper to taste'
p69
aS'freshly ground black pepper'
p70
aS'to taste'
p71
aS'salt to taste'
p72
aS'chopped fresh parsley'
p73
aS'to taste'
p74
asS'intensely chocolate sables'
p75
(lp76
S'( ) dutched cocoa powder (see updated note)'
p77
aS'baking soda'
p78
aS'or) unsalted butter'
p79
aS'to ( to) granulated sugar (less for a more bittersweet cookie)'
p80
aS'fine sea salt'
p81
aS'egg yolk'
p82
aS'vanilla extract'
p83
aS'( ) semi or bittersweet chocolate'
p84
aS'grated or finelyuntil almost powdery in a food processor'
p85
aS'coarse sugar (turbinatosugar in the raw or decorative) for sprinkling'
p86
asS'Lofthouse Style Soft Sugar Cookies'
p87
(lp88
S'for the cookies:'
p89
aS'allpurpose flour'
p90
aS'baking soda'
p91
aS'baking powder'
p92
aS'salt'
p93
aS'unsalted butter'
p94
aS'granulated sugar'
p95
aS'eggs'
p96
aS'vanilla extract'
p97
aS'sour cream'
p98
aS'for the buttercream frosting:'
p99
aS'unsalted butter'
p100
aS'vanilla extract'
p101
aS'powdered sugar'
p102
aS'pinch of salt'
p103
aS'heavy cream'
p104
aS'food coloring'
p105
aS'optional'
p106
aS'sprinkles'
p107
aS'optional'
p108
asS'PB&J'
p109
(S'peanut-butter'
p110
S'jelly'
p111
S'bread'
p112
tp113
sS'Easy Sugar Cookies'
p114
(lp115
S'allpurpose flour'
p116
aS'baking soda'
p117
aS'baking powder'
p118
aS'butter'
p119
aS'white sugar'
p120
aS'egg'
p121
aS'vanilla extract'
p122
as.