(dp0
S'Grilled Cheese'
p1
(S'bread'
p2
S'cheese'
p3
S'butter'
p4
tp5
sS'Shrimp Tacos With Citrus Cabbage Slaw'
p6
(lp7
S'sour cream'
p8
aS'kosher salt and black pepper'
p9
aS'cabe ( )'
p10
aS'shredded'
p11
aS'corn kernels (fromtoears'
p12
aS'or frozen and )'
p13
aS'jalapeo'
p14
aS'seeded and'
p15
aS'olive oil'
p16
aS'peeled and deveined medium shrimp'
p17
asS'BLT'
p18
(S'Bacon'
p19
S'Lettuce'
p20
S'Tomatoe'
p21
tp22
sS'Taco Seasoning I'
p23
(lp24
S'chili powder'
p25
aS'garlic powder'
p26
aS'onion powder'
p27
aS'crushed red pepper flakes'
p28
aS'dried oregano'
p29
aS'paprika'
p30
aS'ground cumin'
p31
aS'sea salt'
p32
aS'black pepper'
p33
asS'Cajun Chicken Pasta'
p34
(lp35
S'boneless'
p36
aS'skinless chicken breasts'
p37
aS'cut into cubes'
p38
aS'cajun spice mix'
p39
aS'more to taste'
p40
aS'fettuccine'
p41
aS'olive oil'
p42
aS's butter'
p43
aS'green bell pepper'
p44
aS'seeded and sliced'
p45
aS'red bell pepper'
p46
aS'seeded and sliced'
p47
aS'large red onion'
p48
aS'sliced'
p49
aS'cloves garlic'
p50
aS'minced'
p51
aS'roma tomatoes'
p52
aS'diced'
p53
aS'low sodium chicken broth'
p54
aS'white wine'
p55
aS'heavy cream'
p56
aS'cayenne pepper to taste'
p57
aS'freshly ground black pepper'
p58
aS'to taste'
p59
aS'salt to taste'
p60
aS'chopped fresh parsley'
p61
aS'to taste'
p62
asS'intensely chocolate sables'
p63
(lp64
S'( ) dutched cocoa powder (see updated note)'
p65
aS'baking soda'
p66
aS'or) unsalted butter'
p67
aS'to ( to) granulated sugar (less for a more bittersweet cookie)'
p68
aS'fine sea salt'
p69
aS'egg yolk'
p70
aS'vanilla extract'
p71
aS'( ) semi or bittersweet chocolate'
p72
aS'grated or finelyuntil almost powdery in a food processor'
p73
aS'coarse sugar (turbinatosugar in the raw or decorative) for sprinkling'
p74
asS'Lofthouse Style Soft Sugar Cookies'
p75
(lp76
S'for the cookies:'
p77
aS'allpurpose flour'
p78
aS'baking soda'
p79
aS'baking powder'
p80
aS'salt'
p81
aS'unsalted butter'
p82
aS'granulated sugar'
p83
aS'eggs'
p84
aS'vanilla extract'
p85
aS'sour cream'
p86
aS'for the buttercream frosting:'
p87
aS'unsalted butter'
p88
aS'vanilla extract'
p89
aS'powdered sugar'
p90
aS'pinch of salt'
p91
aS'heavy cream'
p92
aS'food coloring'
p93
aS'optional'
p94
aS'sprinkles'
p95
aS'optional'
p96
asS'PB&J'
p97
(S'peanut-butter'
p98
S'jelly'
p99
S'bread'
p100
tp101
sS'Easy Sugar Cookies'
p102
(lp103
S'allpurpose flour'
p104
aS'baking soda'
p105
aS'baking powder'
p106
aS'butter'
p107
aS'white sugar'
p108
aS'egg'
p109
aS'vanilla extract'
p110
as.